target datalayout = "e-m:e-p270:32:32-p271:32:32-p272:64:64-i64:64-i128:128-f80:128-n8:16:32:64-S128"
target triple = "x86_64-pc-linux-gnu"

%struct._Py_hashtable_allocator_t = type { ptr, ptr }

@__const.hashtable_new.hashtable_alloc = private unnamed_addr constant %struct._Py_hashtable_allocator_t { ptr @malloc, ptr @free }, align 8

; Function Attrs: nounwind uwtable
define internal ptr @hashtable_new(ptr noundef %0, ptr noundef %1, ptr noundef %2, ptr noundef %3) #0 {
  %5 = alloca ptr, align 8
  %6 = alloca ptr, align 8
  %7 = alloca ptr, align 8
  %8 = alloca ptr, align 8
  %9 = alloca %struct._Py_hashtable_allocator_t, align 8
  store ptr %0, ptr %5, align 8, !tbaa !190
  store ptr %1, ptr %6, align 8, !tbaa !190
  store ptr %2, ptr %7, align 8, !tbaa !190
  store ptr %3, ptr %8, align 8, !tbaa !190
  call void @llvm.lifetime.start.p0(i64 16, ptr %9) #11
  call void @llvm.memcpy.p0.p0.i64(ptr align 8 %9, ptr align 8 @__const.hashtable_new.hashtable_alloc, i64 16, i1 false)
  %10 = load ptr, ptr %5, align 8, !tbaa !190
  %11 = load ptr, ptr %6, align 8, !tbaa !190
  %12 = load ptr, ptr %7, align 8, !tbaa !190
  %13 = load ptr, ptr %8, align 8, !tbaa !190
  %14 = call ptr @_Py_hashtable_new_full(ptr noundef %10, ptr noundef %11, ptr noundef %12, ptr noundef %13, ptr noundef %9)
  call void @llvm.lifetime.end.p0(i64 16, ptr %9) #11
  ret ptr %14
}

; Function Attrs: nounwind uwtable
define internal ptr @tracemalloc_create_traces_table() #0 {
  %1 = call ptr @hashtable_new(ptr noundef @_Py_hashtable_hash_ptr, ptr noundef @_Py_hashtable_compare_direct, ptr noundef null, ptr noundef @raw_free)
  ret ptr %1
}

; Function Attrs: nounwind uwtable
define internal ptr @tracemalloc_copy_traces(ptr noundef %0) #0 {
  %2 = alloca ptr, align 8
  %3 = alloca ptr, align 8
  %4 = alloca ptr, align 8
  %5 = alloca i32, align 4
  %6 = alloca i32, align 4
  store ptr %0, ptr %3, align 8, !tbaa !223
  call void @llvm.lifetime.start.p0(i64 8, ptr %4) #11
  %7 = call ptr @tracemalloc_create_traces_table()
  store ptr %7, ptr %4, align 8, !tbaa !223
  %8 = load ptr, ptr %4, align 8, !tbaa !223
  %9 = icmp eq ptr %8, null
  br i1 %9, label %10, label %11

10:                                               ; preds = %1
  store ptr null, ptr %2, align 8
  store i32 1, ptr %5, align 4
  br label %22

11:                                               ; preds = %1
  call void @llvm.lifetime.start.p0(i64 4, ptr %6) #11
  %12 = load ptr, ptr %3, align 8, !tbaa !223
  %13 = load ptr, ptr %4, align 8, !tbaa !223
  %14 = call i32 @_Py_hashtable_foreach(ptr noundef %12, ptr noundef @tracemalloc_copy_trace, ptr noundef %13)
  store i32 %14, ptr %6, align 4, !tbaa !196
  %15 = load i32, ptr %6, align 4, !tbaa !196
  %16 = icmp ne i32 %15, 0
  br i1 %16, label %17, label %19

17:                                               ; preds = %11
  %18 = load ptr, ptr %4, align 8, !tbaa !223
  call void @_Py_hashtable_destroy(ptr noundef %18)
  store ptr null, ptr %2, align 8
  store i32 1, ptr %5, align 4
  br label %21

19:                                               ; preds = %11
  %20 = load ptr, ptr %4, align 8, !tbaa !223
  store ptr %20, ptr %2, align 8
  store i32 1, ptr %5, align 4
  br label %21

21:                                               ; preds = %19, %17
  call void @llvm.lifetime.end.p0(i64 4, ptr %6) #11
  br label %22

22:                                               ; preds = %21, %10
  call void @llvm.lifetime.end.p0(i64 8, ptr %4) #11
  %23 = load ptr, ptr %2, align 8
  ret ptr %23
}

; Function Attrs: nounwind uwtable
define internal i32 @tracemalloc_copy_domain(ptr noundef %0, ptr noundef %1, ptr noundef %2, ptr noundef %3) #0 {
  %5 = alloca i32, align 4
  %6 = alloca ptr, align 8
  %7 = alloca ptr, align 8
  %8 = alloca ptr, align 8
  %9 = alloca ptr, align 8
  %10 = alloca ptr, align 8
  %11 = alloca i32, align 4
  %12 = alloca ptr, align 8
  %13 = alloca ptr, align 8
  %14 = alloca i32, align 4
  store ptr %0, ptr %6, align 8, !tbaa !223
  store ptr %1, ptr %7, align 8, !tbaa !190
  store ptr %2, ptr %8, align 8, !tbaa !190
  store ptr %3, ptr %9, align 8, !tbaa !190
  call void @llvm.lifetime.start.p0(i64 8, ptr %10) #11
  %15 = load ptr, ptr %9, align 8, !tbaa !190
  store ptr %15, ptr %10, align 8, !tbaa !223
  call void @llvm.lifetime.start.p0(i64 4, ptr %11) #11
  %16 = load ptr, ptr %7, align 8, !tbaa !190
  %17 = ptrtoint ptr %16 to i64
  %18 = trunc i64 %17 to i32
  store i32 %18, ptr %11, align 4, !tbaa !196
  call void @llvm.lifetime.start.p0(i64 8, ptr %12) #11
  %19 = load ptr, ptr %8, align 8, !tbaa !190
  store ptr %19, ptr %12, align 8, !tbaa !223
  call void @llvm.lifetime.start.p0(i64 8, ptr %13) #11
  %20 = load ptr, ptr %12, align 8, !tbaa !223
  %21 = call ptr @tracemalloc_copy_traces(ptr noundef %20)
  store ptr %21, ptr %13, align 8, !tbaa !223
  %22 = load ptr, ptr %13, align 8, !tbaa !223
  %23 = icmp eq ptr %22, null
  br i1 %23, label %24, label %25

24:                                               ; preds = %4
  store i32 -1, ptr %5, align 4
  store i32 1, ptr %14, align 4
  br label %36

25:                                               ; preds = %4
  %26 = load ptr, ptr %10, align 8, !tbaa !223
  %27 = load i32, ptr %11, align 4, !tbaa !196
  %28 = zext i32 %27 to i64
  %29 = inttoptr i64 %28 to ptr
  %30 = load ptr, ptr %13, align 8, !tbaa !223
  %31 = call i32 @_Py_hashtable_set(ptr noundef %26, ptr noundef %29, ptr noundef %30)
  %32 = icmp slt i32 %31, 0
  br i1 %32, label %33, label %35

33:                                               ; preds = %25
  %34 = load ptr, ptr %13, align 8, !tbaa !223
  call void @_Py_hashtable_destroy(ptr noundef %34)
  store i32 -1, ptr %5, align 4
  store i32 1, ptr %14, align 4
  br label %36

35:                                               ; preds = %25
  store i32 0, ptr %5, align 4
  store i32 1, ptr %14, align 4
  br label %36

36:                                               ; preds = %35, %33, %24
  call void @llvm.lifetime.end.p0(i64 8, ptr %13) #11
  call void @llvm.lifetime.end.p0(i64 8, ptr %12) #11
  call void @llvm.lifetime.end.p0(i64 4, ptr %11) #11
  call void @llvm.lifetime.end.p0(i64 8, ptr %10) #11
  %37 = load i32, ptr %5, align 4
  ret i32 %37
}