; Function Attrs: nounwind uwtable
define internal range(i32 -1, 1) i32 @tracemalloc_copy_domain(ptr readnone captures(none) %0, ptr noundef %1, ptr noundef %2, ptr noundef %3) #0 {
  %5 = alloca %struct._Py_hashtable_allocator_t, align 8
  call void @llvm.lifetime.start.p0(i64 16, ptr nonnull %5) #14
  call void @llvm.memcpy.p0.p0.i64(ptr noundef nonnull align 8 dereferenceable(16) %5, ptr noundef nonnull align 8 dereferenceable(16) @__const.hashtable_new.hashtable_alloc, i64 16, i1 false)
  %6 = call ptr @_Py_hashtable_new_full(ptr noundef nonnull @_Py_hashtable_hash_ptr, ptr noundef nonnull @_Py_hashtable_compare_direct, ptr noundef null, ptr noundef nonnull @raw_free, ptr noundef nonnull %5) #14
  call void @llvm.lifetime.end.p0(i64 16, ptr nonnull %5) #14
  %7 = icmp eq ptr %6, null
  br i1 %7, label %tracemalloc_copy_traces.exit.thread, label %8

8:                                                ; preds = %4
  %9 = call i32 @_Py_hashtable_foreach(ptr noundef %2, ptr noundef nonnull @tracemalloc_copy_trace, ptr noundef nonnull %6) #14
  %.not.i = icmp eq i32 %9, 0
  br i1 %.not.i, label %tracemalloc_copy_traces.exit, label %tracemalloc_copy_traces.exit.thread.sink.split

tracemalloc_copy_traces.exit:                     ; preds = %8
  %10 = ptrtoint ptr %1 to i64
  %11 = and i64 %10, 4294967295
  %12 = inttoptr i64 %11 to ptr
  %13 = call i32 @_Py_hashtable_set(ptr noundef %3, ptr noundef %12, ptr noundef nonnull %6) #14
  %14 = icmp slt i32 %13, 0
  br i1 %14, label %tracemalloc_copy_traces.exit.thread.sink.split, label %tracemalloc_copy_traces.exit.thread

tracemalloc_copy_traces.exit.thread.sink.split:   ; preds = %tracemalloc_copy_traces.exit, %8
  call void @_Py_hashtable_destroy(ptr noundef nonnull %6) #14
  br label %tracemalloc_copy_traces.exit.thread

tracemalloc_copy_traces.exit.thread:              ; preds = %tracemalloc_copy_traces.exit.thread.sink.split, %4, %tracemalloc_copy_traces.exit
  %.0 = phi i32 [ 0, %tracemalloc_copy_traces.exit ], [ -1, %4 ], [ -1, %tracemalloc_copy_traces.exit.thread.sink.split ]
  ret i32 %.0
}